target datalayout = "e-m:e-p270:32:32-p271:32:32-p272:64:64-i64:64-i128:128-f80:128-n8:16:32:64-S128"
target triple = "x86_64-unknown-linux-gnu"

%"class.grpc_core::Timestamp" = type { i64 }
%"class.absl::lts_20230802::Status" = type { i64 }
%struct.grpc_call_element_args = type { ptr, ptr, ptr, ptr, double, %"class.grpc_core::Timestamp", ptr, ptr }
%struct.grpc_call_element = type { ptr, ptr, ptr }

@_ZN19grpc_deadline_stateC1EP17grpc_call_elementRK22grpc_call_element_argsN9grpc_core9TimestampE = unnamed_addr alias void (ptr, ptr, ptr, i64), ptr @_ZN19grpc_deadline_stateC2EP17grpc_call_elementRK22grpc_call_element_argsN9grpc_core9TimestampE

; Function Attrs: mustprogress nounwind uwtable
define linkonce_odr noundef i64 @_ZN4absl12lts_202308026Status16CodeToInlinedRepENS0_10StatusCodeE(i32 noundef %code) #5 comdat align 2 {
entry:
  %code.addr = alloca i32, align 4
  store i32 %code, ptr %code.addr, align 4
  %0 = load i32, ptr %code.addr, align 4
  %conv = sext i32 %0 to i64
  %shl = shl i64 %conv, 2
  ret i64 %shl
}

; Function Attrs: mustprogress uwtable
define linkonce_odr void @_ZN4absl12lts_202308026StatusC2Ev(ptr noundef nonnull align 8 dereferenceable(8) %this) unnamed_addr #4 comdat align 2 {
entry:
  %this.addr = alloca ptr, align 8
  store ptr %this, ptr %this.addr, align 8
  %this1 = load ptr, ptr %this.addr, align 8
  %rep_ = getelementptr inbounds %"class.absl::lts_20230802::Status", ptr %this1, i32 0, i32 0
  %call = call noundef i64 @_ZN4absl12lts_202308026Status16CodeToInlinedRepENS0_10StatusCodeE(i32 noundef 0)
  store i64 %call, ptr %rep_, align 8
  ret void
}

; Function Attrs: mustprogress uwtable
define linkonce_odr void @_ZN4absl12lts_202308028OkStatusEv(ptr noalias sret(%"class.absl::lts_20230802::Status") align 8 %agg.result) #4 comdat {
entry:
  %result.ptr = alloca ptr, align 8
  store ptr %agg.result, ptr %result.ptr, align 8
  call void @_ZN4absl12lts_202308026StatusC2Ev(ptr noundef nonnull align 8 dereferenceable(8) %agg.result)
  ret void
}

; Function Attrs: mustprogress uwtable
define internal void @_ZL23deadline_init_call_elemP17grpc_call_elementPK22grpc_call_element_args(ptr noalias sret(%"class.absl::lts_20230802::Status") align 8 %agg.result, ptr noundef %elem, ptr noundef %args) #4 {
entry:
  %result.ptr = alloca ptr, align 8
  %elem.addr = alloca ptr, align 8
  %args.addr = alloca ptr, align 8
  %agg.tmp = alloca %"class.grpc_core::Timestamp", align 8
  store ptr %agg.result, ptr %result.ptr, align 8
  store ptr %elem, ptr %elem.addr, align 8
  store ptr %args, ptr %args.addr, align 8
  %0 = load ptr, ptr %elem.addr, align 8
  %call_data = getelementptr inbounds %struct.grpc_call_element, ptr %0, i32 0, i32 2
  %1 = load ptr, ptr %call_data, align 8
  %2 = load ptr, ptr %elem.addr, align 8
  %3 = load ptr, ptr %args.addr, align 8
  %4 = load ptr, ptr %args.addr, align 8
  %deadline = getelementptr inbounds %struct.grpc_call_element_args, ptr %4, i32 0, i32 5
  call void @llvm.memcpy.p0.p0.i64(ptr align 8 %agg.tmp, ptr align 8 %deadline, i64 8, i1 false)
  %coerce.dive = getelementptr inbounds %"class.grpc_core::Timestamp", ptr %agg.tmp, i32 0, i32 0
  %5 = load i64, ptr %coerce.dive, align 8
  call void @_ZN19grpc_deadline_stateC1EP17grpc_call_elementRK22grpc_call_element_argsN9grpc_core9TimestampE(ptr noundef nonnull align 8 dereferenceable(80) %1, ptr noundef %2, ptr noundef nonnull align 8 dereferenceable(64) %3, i64 %5)
  call void @_ZN4absl12lts_202308028OkStatusEv(ptr sret(%"class.absl::lts_20230802::Status") align 8 %agg.result)
  ret void
}