; Function Attrs: mustprogress uwtable
define internal void @_ZL23deadline_init_call_elemP17grpc_call_elementPK22grpc_call_element_args(ptr noalias nocapture writeonly sret(%"class.absl::lts_20230802::Status") align 8 %agg.result, ptr noundef %elem, ptr noundef %args) #3 {
entry:
  %call_data = getelementptr inbounds i8, ptr %elem, i64 16
  %0 = load ptr, ptr %call_data, align 8
  %deadline = getelementptr inbounds i8, ptr %args, i64 40
  %agg.tmp.sroa.0.0.copyload = load i64, ptr %deadline, align 8
  tail call void @_ZN19grpc_deadline_stateC1EP17grpc_call_elementRK22grpc_call_element_argsN9grpc_core9TimestampE(ptr noundef nonnull align 8 dereferenceable(80) %0, ptr noundef %elem, ptr noundef nonnull align 8 dereferenceable(64) %args, i64 %agg.tmp.sroa.0.0.copyload)
  store i64 0, ptr %agg.result, align 8, !alias.scope !13
  ret void
}